; Function Attrs: mustprogress nofree norecurse nosync nounwind willreturn memory(argmem: readwrite) uwtable
define void @_ZN32pxrInternal_v0_24__pxrReserved__10GfMatrix4fC2ERKNS_10GfMatrix3fERKNS_7GfVec3fE(ptr noundef nonnull writeonly align 4 captures(none) dereferenceable(64) initializes((0, 64)) %0, ptr noundef nonnull readonly align 4 captures(none) dereferenceable(36) %1, ptr noundef nonnull readonly align 4 captures(none) dereferenceable(12) %2) unnamed_addr #2 align 2 {
  %4 = load float, ptr %1, align 4
  store float %4, ptr %0, align 4
  %5 = getelementptr inbounds nuw i8, ptr %1, i64 4
  %6 = load float, ptr %5, align 4
  %7 = getelementptr inbounds nuw i8, ptr %0, i64 4
  store float %6, ptr %7, align 4
  %8 = getelementptr inbounds nuw i8, ptr %1, i64 8
  %9 = load float, ptr %8, align 4
  %10 = getelementptr inbounds nuw i8, ptr %0, i64 8
  store float %9, ptr %10, align 4
  %11 = getelementptr inbounds nuw i8, ptr %0, i64 12
  store float 0.000000e+00, ptr %11, align 4
  %12 = getelementptr inbounds nuw i8, ptr %1, i64 12
  %13 = load float, ptr %12, align 4
  %14 = getelementptr inbounds nuw i8, ptr %0, i64 16
  store float %13, ptr %14, align 4
  %15 = getelementptr inbounds nuw i8, ptr %1, i64 16
  %16 = load float, ptr %15, align 4
  %17 = getelementptr inbounds nuw i8, ptr %0, i64 20
  store float %16, ptr %17, align 4
  %18 = getelementptr inbounds nuw i8, ptr %1, i64 20
  %19 = load float, ptr %18, align 4
  %20 = getelementptr inbounds nuw i8, ptr %0, i64 24
  store float %19, ptr %20, align 4
  %21 = getelementptr inbounds nuw i8, ptr %0, i64 28
  store float 0.000000e+00, ptr %21, align 4
  %22 = getelementptr inbounds nuw i8, ptr %1, i64 24
  %23 = load float, ptr %22, align 4
  %24 = getelementptr inbounds nuw i8, ptr %0, i64 32
  store float %23, ptr %24, align 4
  %25 = getelementptr inbounds nuw i8, ptr %1, i64 28
  %26 = load float, ptr %25, align 4
  %27 = getelementptr inbounds nuw i8, ptr %0, i64 36
  store float %26, ptr %27, align 4
  %28 = getelementptr inbounds nuw i8, ptr %1, i64 32
  %29 = load float, ptr %28, align 4
  %30 = getelementptr inbounds nuw i8, ptr %0, i64 40
  store float %29, ptr %30, align 4
  %31 = getelementptr inbounds nuw i8, ptr %0, i64 44
  %32 = getelementptr inbounds nuw i8, ptr %0, i64 60
  tail call void @llvm.memset.p0.i64(ptr noundef nonnull align 4 dereferenceable(16) %31, i8 0, i64 16, i1 false)
  store float 1.000000e+00, ptr %32, align 4
  %33 = load float, ptr %2, align 4
  %34 = getelementptr inbounds nuw i8, ptr %0, i64 48
  store float %33, ptr %34, align 4
  %35 = getelementptr inbounds nuw i8, ptr %2, i64 4
  %36 = load float, ptr %35, align 4
  %37 = getelementptr inbounds nuw i8, ptr %0, i64 52
  store float %36, ptr %37, align 4
  %38 = getelementptr inbounds nuw i8, ptr %2, i64 8
  %39 = load float, ptr %38, align 4
  %40 = getelementptr inbounds nuw i8, ptr %0, i64 56
  store float %39, ptr %40, align 4
  store float 1.000000e+00, ptr %32, align 4
  ret void
}